target datalayout = "e-m:e-p270:32:32-p271:32:32-p272:64:64-i64:64-i128:128-f80:128-n8:16:32:64-S128"
target triple = "x86_64-pc-linux-gnu"

%"struct.realclosure::mpbq_config::interval" = type { %class.mpbq, %class.mpbq, i8, i8, i8, i8, [4 x i8] }
%class.mpbq = type <{ %class.mpz, i32, [4 x i8] }>
%class.mpz = type { i32, i8, ptr }
%"class.realclosure::manager" = type { ptr }
%"class.realclosure::num" = type { ptr }
%"struct.realclosure::value" = type { i32, i8, [3 x i8], %"struct.realclosure::mpbq_config::interval", ptr }
%"struct.realclosure::rational_function_value" = type <{ %"struct.realclosure::value", %class.ptr_array, %class.ptr_array, ptr, i8, [7 x i8] }>
%class.ptr_array = type { %class.array }
%class.array = type { ptr }

; Function Attrs: mustprogress nounwind uwtable
define linkonce_odr hidden noundef zeroext i1 @_ZNK11realclosure5value11is_rationalEv(ptr noundef nonnull align 8 dereferenceable(72) %0) #4 comdat align 2 {
  %2 = alloca ptr, align 8
  store ptr %0, ptr %2, align 8, !tbaa !99
  %3 = load ptr, ptr %2, align 8
  %4 = getelementptr inbounds nuw %"struct.realclosure::value", ptr %3, i32 0, i32 1
  %5 = load i8, ptr %4, align 4, !tbaa !205, !range !109, !noundef !110
  %6 = trunc i8 %5 to i1
  ret i1 %6
}

; Function Attrs: mustprogress nounwind uwtable
define linkonce_odr hidden noundef zeroext i1 @_ZNK11realclosure23rational_function_value25depends_on_infinitesimalsEv(ptr noundef nonnull align 8 dereferenceable(97) %0) #4 comdat align 2 {
  %2 = alloca ptr, align 8
  store ptr %0, ptr %2, align 8, !tbaa !92
  %3 = load ptr, ptr %2, align 8
  %4 = getelementptr inbounds nuw %"struct.realclosure::rational_function_value", ptr %3, i32 0, i32 4
  %5 = load i8, ptr %4, align 8, !tbaa !299, !range !109, !noundef !110
  %6 = trunc i8 %5 to i1
  ret i1 %6
}

; Function Attrs: mustprogress nounwind uwtable
define linkonce_odr hidden noundef ptr @_ZN11realclosure7manager3imp20to_rational_functionEPNS_5valueE(ptr noundef %0) #4 comdat align 2 {
  %2 = alloca ptr, align 8
  store ptr %0, ptr %2, align 8, !tbaa !99
  %3 = load ptr, ptr %2, align 8, !tbaa !99
  ret ptr %3
}

; Function Attrs: mustprogress nounwind uwtable
define linkonce_odr hidden noundef zeroext i1 @_ZN11realclosure7manager3imp14is_nz_rationalEPNS_5valueE(ptr noundef %0) #4 comdat align 2 {
  %2 = alloca ptr, align 8
  store ptr %0, ptr %2, align 8, !tbaa !99
  %3 = load ptr, ptr %2, align 8, !tbaa !99
  %4 = call noundef zeroext i1 @_ZNK11realclosure5value11is_rationalEv(ptr noundef nonnull align 8 dereferenceable(72) %3)
  ret i1 %4
}

; Function Attrs: mustprogress nounwind uwtable
define linkonce_odr hidden noundef zeroext i1 @_ZN11realclosure7manager3imp7is_zeroEPNS_5valueE(ptr noundef %0) #4 comdat align 2 {
  %2 = alloca ptr, align 8
  store ptr %0, ptr %2, align 8, !tbaa !99
  %3 = load ptr, ptr %2, align 8, !tbaa !99
  %4 = icmp eq ptr %3, null
  ret i1 %4
}

; Function Attrs: mustprogress uwtable
define linkonce_odr hidden noundef zeroext i1 @_ZNK11realclosure7manager3imp25depends_on_infinitesimalsEPNS_5valueE(ptr noundef nonnull align 8 dereferenceable(1497) %0, ptr noundef %1) #6 comdat align 2 {
  %3 = alloca i1, align 1
  %4 = alloca ptr, align 8
  %5 = alloca ptr, align 8
  store ptr %0, ptr %4, align 8, !tbaa !28
  store ptr %1, ptr %5, align 8, !tbaa !99
  %6 = load ptr, ptr %5, align 8, !tbaa !99
  %7 = call noundef zeroext i1 @_ZN11realclosure7manager3imp7is_zeroEPNS_5valueE(ptr noundef %6)
  br i1 %7, label %11, label %8

8:                                                ; preds = %2
  %9 = load ptr, ptr %5, align 8, !tbaa !99
  %10 = call noundef zeroext i1 @_ZN11realclosure7manager3imp14is_nz_rationalEPNS_5valueE(ptr noundef %9)
  br i1 %10, label %11, label %12

11:                                               ; preds = %8, %2
  store i1 false, ptr %3, align 1
  br label %16

12:                                               ; preds = %8
  %13 = load ptr, ptr %5, align 8, !tbaa !99
  %14 = call noundef ptr @_ZN11realclosure7manager3imp20to_rational_functionEPNS_5valueE(ptr noundef %13)
  %15 = call noundef zeroext i1 @_ZNK11realclosure23rational_function_value25depends_on_infinitesimalsEv(ptr noundef nonnull align 8 dereferenceable(97) %14)
  store i1 %15, ptr %3, align 1
  br label %16

16:                                               ; preds = %12, %11
  %17 = load i1, ptr %3, align 1
  ret i1 %17
}

; Function Attrs: mustprogress uwtable
define linkonce_odr hidden noundef zeroext i1 @_ZNK11realclosure7manager3imp25depends_on_infinitesimalsERKNS_3numE(ptr noundef nonnull align 8 dereferenceable(1497) %0, ptr noundef nonnull align 8 dereferenceable(8) %1) #6 comdat align 2 {
  %3 = alloca ptr, align 8
  %4 = alloca ptr, align 8
  store ptr %0, ptr %3, align 8, !tbaa !28
  store ptr %1, ptr %4, align 8, !tbaa !76
  %5 = load ptr, ptr %3, align 8
  %6 = load ptr, ptr %4, align 8, !tbaa !76
  %7 = getelementptr inbounds nuw %"class.realclosure::num", ptr %6, i32 0, i32 0
  %8 = load ptr, ptr %7, align 8, !tbaa !78
  %9 = call noundef zeroext i1 @_ZNK11realclosure7manager3imp25depends_on_infinitesimalsEPNS_5valueE(ptr noundef nonnull align 8 dereferenceable(1497) %5, ptr noundef %8)
  ret i1 %9
}

; Function Attrs: mustprogress uwtable
define hidden noundef zeroext i1 @_ZN11realclosure7manager25depends_on_infinitesimalsERKNS_3numE(ptr noundef nonnull align 8 dereferenceable(8) %0, ptr noundef nonnull align 8 dereferenceable(8) %1) #6 align 2 {
  %3 = alloca ptr, align 8
  %4 = alloca ptr, align 8
  store ptr %0, ptr %3, align 8, !tbaa !15
  store ptr %1, ptr %4, align 8, !tbaa !76
  %5 = load ptr, ptr %3, align 8
  %6 = getelementptr inbounds nuw %"class.realclosure::manager", ptr %5, i32 0, i32 0
  %7 = load ptr, ptr %6, align 8, !tbaa !25
  %8 = load ptr, ptr %4, align 8, !tbaa !76
  %9 = call noundef zeroext i1 @_ZNK11realclosure7manager3imp25depends_on_infinitesimalsERKNS_3numE(ptr noundef nonnull align 8 dereferenceable(1497) %7, ptr noundef nonnull align 8 dereferenceable(8) %8)
  ret i1 %9
}