; Function Attrs: mustprogress nofree norecurse nosync nounwind willreturn memory(read, inaccessiblemem: none) uwtable
define hidden noundef zeroext i1 @_ZN11realclosure7manager25depends_on_infinitesimalsERKNS_3numE(ptr noundef nonnull readonly align 8 captures(none) dereferenceable(8) %0, ptr noundef nonnull readonly align 8 captures(none) dereferenceable(8) %1) local_unnamed_addr #9 align 2 {
  %3 = load ptr, ptr %1, align 8, !tbaa !84
  %4 = icmp eq ptr %3, null
  br i1 %4, label %_ZNK11realclosure7manager3imp25depends_on_infinitesimalsERKNS_3numE.exit, label %5

5:                                                ; preds = %2
  %6 = getelementptr inbounds nuw i8, ptr %3, i64 4
  %7 = load i8, ptr %6, align 4, !tbaa !61, !range !105, !noundef !106
  %8 = trunc nuw i8 %7 to i1
  br i1 %8, label %_ZNK11realclosure7manager3imp25depends_on_infinitesimalsERKNS_3numE.exit, label %9

9:                                                ; preds = %5
  %10 = getelementptr inbounds nuw i8, ptr %3, i64 96
  %11 = load i8, ptr %10, align 8, !tbaa !112, !range !105, !noundef !106
  %12 = trunc nuw i8 %11 to i1
  br label %_ZNK11realclosure7manager3imp25depends_on_infinitesimalsERKNS_3numE.exit

_ZNK11realclosure7manager3imp25depends_on_infinitesimalsERKNS_3numE.exit: ; preds = %2, %5, %9
  %.0.i.i = phi i1 [ %12, %9 ], [ false, %5 ], [ false, %2 ]
  ret i1 %.0.i.i
}